target datalayout = "e-m:e-p270:32:32-p271:32:32-p272:64:64-i64:64-i128:128-f80:128-n8:16:32:64-S128"
target triple = "x86_64-unknown-linux-gnu"

%class.symbol = type { ptr }
%"class.spacer::prop_solver" = type <{ ptr, %class.symbol, [2 x %class.ref], [2 x %class.scoped_ptr], ptr, %class.ptr_vector, %class.ref_vector, %class.ref_vector, %class.obj_hashtable, ptr, ptr, i8, [3 x i8], i32, i8, i8, i8, i8, i32, %class.random_gen, [4 x i8] }>
%class.ref = type { ptr }
%class.scoped_ptr = type { ptr }
%class.ptr_vector = type { %class.vector }
%class.vector = type { ptr }
%class.ref_vector = type { %class.ref_vector_core }
%class.ref_vector_core = type { %class.ref_manager_wrapper, %class.ptr_vector.0 }
%class.ref_manager_wrapper = type { ptr }
%class.ptr_vector.0 = type { %class.vector.1 }
%class.vector.1 = type { ptr }
%class.obj_hashtable = type { %class.core_hashtable.base, [4 x i8] }
%class.core_hashtable.base = type <{ ptr, i32, i32, i32 }>
%class.random_gen = type { i32 }

; Function Attrs: mustprogress nounwind uwtable
define linkonce_odr hidden noundef i32 @_ZNK6vectorIP9func_declLb0EjE4sizeEv(ptr noundef nonnull align 8 dereferenceable(8) %this) #6 comdat align 2 {
entry:
  %retval = alloca i32, align 4
  %this.addr = alloca ptr, align 8
  store ptr %this, ptr %this.addr, align 8
  %this1 = load ptr, ptr %this.addr, align 8
  %m_data = getelementptr inbounds %class.vector, ptr %this1, i32 0, i32 0
  %0 = load ptr, ptr %m_data, align 8
  %cmp = icmp eq ptr %0, null
  br i1 %cmp, label %if.then, label %if.end

if.then:                                          ; preds = %entry
  store i32 0, ptr %retval, align 4
  br label %return

if.end:                                           ; preds = %entry
  %m_data2 = getelementptr inbounds %class.vector, ptr %this1, i32 0, i32 0
  %1 = load ptr, ptr %m_data2, align 8
  %arrayidx = getelementptr inbounds i32, ptr %1, i64 -1
  %2 = load i32, ptr %arrayidx, align 4
  store i32 %2, ptr %retval, align 4
  br label %return

return:                                           ; preds = %if.end, %if.then
  %3 = load i32, ptr %retval, align 4
  ret i32 %3
}

; Function Attrs: mustprogress uwtable
define hidden noundef i32 @_ZNK6spacer11prop_solver9level_cntEv(ptr noundef nonnull align 8 dereferenceable(156) %this) #4 align 2 {
entry:
  %this.addr = alloca ptr, align 8
  store ptr %this, ptr %this.addr, align 8
  %this1 = load ptr, ptr %this.addr, align 8
  %m_level_preds = getelementptr inbounds %"class.spacer::prop_solver", ptr %this1, i32 0, i32 5
  %call = call noundef i32 @_ZNK6vectorIP9func_declLb0EjE4sizeEv(ptr noundef nonnull align 8 dereferenceable(8) %m_level_preds)
  ret i32 %call
}

; Function Attrs: mustprogress nounwind uwtable
define linkonce_odr hidden noundef zeroext i1 @_ZN6spacer14is_infty_levelEj(i32 noundef %lvl) #6 comdat {
entry:
  %lvl.addr = alloca i32, align 4
  store i32 %lvl, ptr %lvl.addr, align 4
  %0 = load i32, ptr %lvl.addr, align 4
  %cmp = icmp uge i32 %0, 65535
  ret i1 %cmp
}

; Function Attrs: mustprogress uwtable
define hidden void @_ZN6spacer11prop_solver12ensure_levelEj(ptr noundef nonnull align 8 dereferenceable(156) %this, i32 noundef %lvl) #4 align 2 {
entry:
  %this.addr = alloca ptr, align 8
  %lvl.addr = alloca i32, align 4
  store ptr %this, ptr %this.addr, align 8
  store i32 %lvl, ptr %lvl.addr, align 4
  %this1 = load ptr, ptr %this.addr, align 8
  %0 = load i32, ptr %lvl.addr, align 4
  %call = call noundef zeroext i1 @_ZN6spacer14is_infty_levelEj(i32 noundef %0)
  br i1 %call, label %if.then, label %if.end

if.then:                                          ; preds = %entry
  br label %while.end

if.end:                                           ; preds = %entry
  br label %while.cond

while.cond:                                       ; preds = %while.body, %if.end
  %1 = load i32, ptr %lvl.addr, align 4
  %call2 = call noundef i32 @_ZNK6spacer11prop_solver9level_cntEv(ptr noundef nonnull align 8 dereferenceable(156) %this1)
  %cmp = icmp uge i32 %1, %call2
  br i1 %cmp, label %while.body, label %while.end

while.body:                                       ; preds = %while.cond
  call void @_ZN6spacer11prop_solver9add_levelEv(ptr noundef nonnull align 8 dereferenceable(156) %this1)
  br label %while.cond, !llvm.loop !7

while.end:                                        ; preds = %while.cond, %if.then
  ret void
}