; Function Attrs: mustprogress uwtable
define hidden void @_ZN6spacer11prop_solver12ensure_levelEj(ptr noundef nonnull align 8 dereferenceable(156) %this, i32 noundef %lvl) local_unnamed_addr #3 align 2 {
entry:
  %cmp.i = icmp ugt i32 %lvl, 65534
  br i1 %cmp.i, label %while.end, label %while.cond.preheader

while.cond.preheader:                             ; preds = %entry
  %m_level_preds.i = getelementptr inbounds i8, ptr %this, i64 56
  br label %while.cond

while.cond:                                       ; preds = %while.cond.preheader, %while.body
  %0 = load ptr, ptr %m_level_preds.i, align 8
  %cmp.i.i = icmp eq ptr %0, null
  br i1 %cmp.i.i, label %while.body, label %_ZNK6spacer11prop_solver9level_cntEv.exit

_ZNK6spacer11prop_solver9level_cntEv.exit:        ; preds = %while.cond
  %arrayidx.i.i = getelementptr inbounds i8, ptr %0, i64 -4
  %1 = load i32, ptr %arrayidx.i.i, align 4
  %cmp.not = icmp ugt i32 %1, %lvl
  br i1 %cmp.not, label %while.end, label %while.body

while.body:                                       ; preds = %while.cond, %_ZNK6spacer11prop_solver9level_cntEv.exit
  tail call void @_ZN6spacer11prop_solver9add_levelEv(ptr noundef nonnull align 8 dereferenceable(156) %this)
  br label %while.cond, !llvm.loop !8

while.end:                                        ; preds = %_ZNK6spacer11prop_solver9level_cntEv.exit, %entry
  ret void
}